target datalayout = "e-m:e-p270:32:32-p271:32:32-p272:64:64-i64:64-i128:128-f80:128-n8:16:32:64-S128"
target triple = "x86_64-unknown-linux-gnu"

%"class.v8::IndirectHandleBase" = type { ptr }
%"struct.node::async_context" = type { double, double }
%"class.node::AsyncResource" = type { ptr, ptr, %"class.v8::Global", %"struct.node::async_context" }
%"class.v8::Global" = type { %"class.v8::PersistentBase" }
%"class.v8::PersistentBase" = type { %"class.v8::IndirectHandleBase" }

@_ZTVN4node13AsyncResourceE = dso_local unnamed_addr constant { [4 x ptr] } { [4 x ptr] [ptr null, ptr null, ptr @_ZN4node13AsyncResourceD1Ev, ptr @_ZN4node13AsyncResourceD0Ev] }, align 8

; Function Attrs: mustprogress nounwind uwtable
define dso_local void @_ZN4node13AsyncResourceD2Ev(ptr noundef nonnull align 8 dereferenceable(40) %this) unnamed_addr #4 align 2 {
entry:
  %this.addr.i6 = alloca ptr, align 8
  %this.addr.i4 = alloca ptr, align 8
  %this.addr.i.i = alloca ptr, align 8
  %this.addr.i2 = alloca ptr, align 8
  %this.addr.i = alloca ptr, align 8
  %this.addr = alloca ptr, align 8
  %agg.tmp = alloca %"struct.node::async_context", align 8
  store ptr %this, ptr %this.addr, align 8
  %this1 = load ptr, ptr %this.addr, align 8
  store ptr getelementptr inbounds ({ [4 x ptr] }, ptr @_ZTVN4node13AsyncResourceE, i32 0, i32 0, i32 2), ptr %this1, align 8
  %env_ = getelementptr inbounds %"class.node::AsyncResource", ptr %this1, i32 0, i32 1
  %0 = load ptr, ptr %env_, align 8
  %async_context_ = getelementptr inbounds %"class.node::AsyncResource", ptr %this1, i32 0, i32 3
  call void @llvm.memcpy.p0.p0.i64(ptr align 8 %agg.tmp, ptr align 8 %async_context_, i64 16, i1 false)
  %1 = getelementptr inbounds { double, double }, ptr %agg.tmp, i32 0, i32 0
  %2 = load double, ptr %1, align 8
  %3 = getelementptr inbounds { double, double }, ptr %agg.tmp, i32 0, i32 1
  %4 = load double, ptr %3, align 8
  call void @_ZN4node16EmitAsyncDestroyEPNS_11EnvironmentENS_13async_contextE(ptr noundef %0, double %2, double %4)
  %resource_ = getelementptr inbounds %"class.node::AsyncResource", ptr %this1, i32 0, i32 2
  store ptr %resource_, ptr %this.addr.i, align 8
  %this1.i = load ptr, ptr %this.addr.i, align 8
  store ptr %this1.i, ptr %this.addr.i2, align 8
  %this1.i3 = load ptr, ptr %this.addr.i2, align 8
  store ptr %this1.i3, ptr %this.addr.i.i, align 8
  %this1.i.i = load ptr, ptr %this.addr.i.i, align 8
  %5 = load ptr, ptr %this1.i.i, align 8
  %cmp.i.i = icmp eq ptr %5, null
  br i1 %cmp.i.i, label %if.then.i, label %if.end.i

if.then.i:                                        ; preds = %entry
  br label %_ZN2v814PersistentBaseINS_6ObjectEE5ResetEv.exit

if.end.i:                                         ; preds = %entry
  store ptr %this1.i3, ptr %this.addr.i4, align 8
  %this1.i5 = load ptr, ptr %this.addr.i4, align 8
  %6 = load ptr, ptr %this1.i5, align 8
  call void @_ZN2v812api_internal13DisposeGlobalEPm(ptr noundef %6) #3
  store ptr %this1.i3, ptr %this.addr.i6, align 8
  %this1.i7 = load ptr, ptr %this.addr.i6, align 8
  store ptr null, ptr %this1.i7, align 8
  br label %_ZN2v814PersistentBaseINS_6ObjectEE5ResetEv.exit

_ZN2v814PersistentBaseINS_6ObjectEE5ResetEv.exit: ; preds = %if.end.i, %if.then.i
  ret void
}