; Function Attrs: mustprogress nounwind uwtable
define dso_local void @_ZN4node13AsyncResourceD2Ev(ptr nocapture noundef nonnull align 8 dereferenceable(40) %this) unnamed_addr #3 align 2 {
entry:
  store ptr getelementptr inbounds ({ [4 x ptr] }, ptr @_ZTVN4node13AsyncResourceE, i64 0, i32 0, i64 2), ptr %this, align 8
  %env_ = getelementptr inbounds i8, ptr %this, i64 8
  %0 = load ptr, ptr %env_, align 8
  %async_context_ = getelementptr inbounds i8, ptr %this, i64 24
  %agg.tmp.sroa.0.0.copyload = load double, ptr %async_context_, align 8
  %agg.tmp.sroa.2.0.async_context_.sroa_idx = getelementptr inbounds i8, ptr %this, i64 32
  %agg.tmp.sroa.2.0.copyload = load double, ptr %agg.tmp.sroa.2.0.async_context_.sroa_idx, align 8
  tail call void @_ZN4node16EmitAsyncDestroyEPNS_11EnvironmentENS_13async_contextE(ptr noundef %0, double %agg.tmp.sroa.0.0.copyload, double %agg.tmp.sroa.2.0.copyload) #9
  %resource_ = getelementptr inbounds i8, ptr %this, i64 16
  %1 = load ptr, ptr %resource_, align 8
  %cmp.i.i = icmp eq ptr %1, null
  br i1 %cmp.i.i, label %_ZN2v814PersistentBaseINS_6ObjectEE5ResetEv.exit, label %if.end.i

if.end.i:                                         ; preds = %entry
  tail call void @_ZN2v812api_internal13DisposeGlobalEPm(ptr noundef nonnull %1) #9
  store ptr null, ptr %resource_, align 8
  br label %_ZN2v814PersistentBaseINS_6ObjectEE5ResetEv.exit

_ZN2v814PersistentBaseINS_6ObjectEE5ResetEv.exit: ; preds = %entry, %if.end.i
  ret void
}